; Function Attrs: mustprogress nounwind uwtable
define internal void @_ZN3gmx12_GLOBAL__N_136ModificationCheckingFileOutputStreamD0Ev(ptr noundef nonnull align 8 dereferenceable(96) %0) unnamed_addr #0 align 2 {
  store ptr getelementptr inbounds inrange(-16, 32) ({ [6 x ptr] }, ptr @_ZTVN3gmx12_GLOBAL__N_136ModificationCheckingFileOutputStreamE, i64 0, i32 0, i64 2), ptr %0, align 8
  %2 = getelementptr inbounds i8, ptr %0, i64 48
  store ptr getelementptr inbounds inrange(-16, 32) ({ [6 x ptr] }, ptr @_ZTVN3gmx18StringOutputStreamE, i64 0, i32 0, i64 2), ptr %2, align 8
  %3 = getelementptr inbounds i8, ptr %0, i64 56
  tail call void @_ZNSt7__cxx1112basic_stringIcSt11char_traitsIcESaIcEED1Ev(ptr noundef nonnull align 8 dereferenceable(32) %3) #19
  %4 = getelementptr inbounds i8, ptr %0, i64 40
  %5 = load ptr, ptr %4, align 8
  %.not.i.i.i.i = icmp eq ptr %5, null
  br i1 %.not.i.i.i.i, label %_ZN3gmx12_GLOBAL__N_136ModificationCheckingFileOutputStreamD2Ev.exit, label %6

6:                                                ; preds = %1
  tail call void @_ZNKSt10filesystem7__cxx114path5_List13_Impl_deleterclEPNS2_5_ImplE(ptr noundef nonnull align 1 dereferenceable(1) %4, ptr noundef nonnull %5) #19
  br label %_ZN3gmx12_GLOBAL__N_136ModificationCheckingFileOutputStreamD2Ev.exit

_ZN3gmx12_GLOBAL__N_136ModificationCheckingFileOutputStreamD2Ev.exit: ; preds = %1, %6
  %7 = getelementptr inbounds i8, ptr %0, i64 8
  store ptr null, ptr %4, align 8
  tail call void @_ZNSt7__cxx1112basic_stringIcSt11char_traitsIcESaIcEED1Ev(ptr noundef nonnull align 8 dereferenceable(32) %7) #19
  tail call void @_ZdlPv(ptr noundef nonnull %0) #20
  ret void
}